target datalayout = "e-m:e-p270:32:32-p271:32:32-p272:64:64-i64:64-i128:128-f80:128-n8:16:32:64-S128"
target triple = "x86_64-unknown-linux-gnu"

%struct.Packet = type { ptr, %union.anon.2, ptr, i32, i64, i32, i32, i32, i32, i8, i16, i16, i8 }
%union.anon.2 = type { ptr }
%struct.in_addr = type { i32 }
%struct.ip = type { i8, i8, i16, i16, i16, i8, i8, i16, %struct.in_addr, %struct.in_addr }
%struct.timeval = type { i64, i64 }

@trace_events_enabled_count = external global i32, align 4
@message_with_timestamp = external global i8, align 1
@qemu_loglevel = external global i32, align 4
@_TRACE_COLO_COMPARE_IP_INFO_DSTATE = external global i16, align 2
@.str.37 = private unnamed_addr constant [118 x i8] c"%d@%zu.%06zu:colo_compare_ip_info ppkt size = %d, ip_src = %s, ip_dst = %s, spkt size = %d, ip_src = %s, ip_dst = %s\0A\00", align 1
@.str.38 = private unnamed_addr constant [105 x i8] c"colo_compare_ip_info ppkt size = %d, ip_src = %s, ip_dst = %s, spkt size = %d, ip_src = %s, ip_dst = %s\0A\00", align 1

; Function Attrs: nounwind sspstrong uwtable
define internal zeroext i1 @qemu_loglevel_mask(i32 noundef %mask) #0 {
entry:
  %mask.addr = alloca i32, align 4
  store i32 %mask, ptr %mask.addr, align 4
  %0 = load i32, ptr @qemu_loglevel, align 4
  %1 = load i32, ptr %mask.addr, align 4
  %and = and i32 %0, %1
  %cmp = icmp ne i32 %and, 0
  ret i1 %cmp
}

; Function Attrs: nounwind sspstrong uwtable
define internal void @_nocheck__trace_colo_compare_ip_info(i32 noundef %psize, ptr noundef %sta, ptr noundef %stb, i32 noundef %ssize, ptr noundef %stc, ptr noundef %std) #0 {
entry:
  %psize.addr = alloca i32, align 4
  %sta.addr = alloca ptr, align 8
  %stb.addr = alloca ptr, align 8
  %ssize.addr = alloca i32, align 4
  %stc.addr = alloca ptr, align 8
  %std.addr = alloca ptr, align 8
  %_now = alloca %struct.timeval, align 8
  store i32 %psize, ptr %psize.addr, align 4
  store ptr %sta, ptr %sta.addr, align 8
  store ptr %stb, ptr %stb.addr, align 8
  store i32 %ssize, ptr %ssize.addr, align 4
  store ptr %stc, ptr %stc.addr, align 8
  store ptr %std, ptr %std.addr, align 8
  %0 = load i32, ptr @trace_events_enabled_count, align 4
  %tobool = icmp ne i32 %0, 0
  %lnot = xor i1 %tobool, true
  %lnot1 = xor i1 %lnot, true
  %lnot.ext = zext i1 %lnot1 to i32
  %conv = sext i32 %lnot.ext to i64
  %tobool2 = icmp ne i64 %conv, 0
  br i1 %tobool2, label %land.lhs.true, label %if.end11

land.lhs.true:                                    ; preds = %entry
  %1 = load i16, ptr @_TRACE_COLO_COMPARE_IP_INFO_DSTATE, align 2
  %conv3 = zext i16 %1 to i32
  %tobool4 = icmp ne i32 %conv3, 0
  br i1 %tobool4, label %land.lhs.true5, label %if.end11

land.lhs.true5:                                   ; preds = %land.lhs.true
  %call = call zeroext i1 @qemu_loglevel_mask(i32 noundef 32768)
  br i1 %call, label %if.then, label %if.end11

if.then:                                          ; preds = %land.lhs.true5
  %2 = load i8, ptr @message_with_timestamp, align 1
  %tobool7 = trunc i8 %2 to i1
  br i1 %tobool7, label %if.then8, label %if.else

if.then8:                                         ; preds = %if.then
  %call9 = call i32 @gettimeofday(ptr noundef %_now, ptr noundef null) #15
  %call10 = call i32 @qemu_get_thread_id()
  %tv_sec = getelementptr inbounds %struct.timeval, ptr %_now, i32 0, i32 0
  %3 = load i64, ptr %tv_sec, align 8
  %tv_usec = getelementptr inbounds %struct.timeval, ptr %_now, i32 0, i32 1
  %4 = load i64, ptr %tv_usec, align 8
  %5 = load i32, ptr %psize.addr, align 4
  %6 = load ptr, ptr %sta.addr, align 8
  %7 = load ptr, ptr %stb.addr, align 8
  %8 = load i32, ptr %ssize.addr, align 4
  %9 = load ptr, ptr %stc.addr, align 8
  %10 = load ptr, ptr %std.addr, align 8
  call void (ptr, ...) @qemu_log(ptr noundef @.str.37, i32 noundef %call10, i64 noundef %3, i64 noundef %4, i32 noundef %5, ptr noundef %6, ptr noundef %7, i32 noundef %8, ptr noundef %9, ptr noundef %10)
  br label %if.end

if.else:                                          ; preds = %if.then
  %11 = load i32, ptr %psize.addr, align 4
  %12 = load ptr, ptr %sta.addr, align 8
  %13 = load ptr, ptr %stb.addr, align 8
  %14 = load i32, ptr %ssize.addr, align 4
  %15 = load ptr, ptr %stc.addr, align 8
  %16 = load ptr, ptr %std.addr, align 8
  call void (ptr, ...) @qemu_log(ptr noundef @.str.38, i32 noundef %11, ptr noundef %12, ptr noundef %13, i32 noundef %14, ptr noundef %15, ptr noundef %16)
  br label %if.end

if.end:                                           ; preds = %if.else, %if.then8
  br label %if.end11

if.end11:                                         ; preds = %if.end, %land.lhs.true5, %land.lhs.true, %entry
  ret void
}

; Function Attrs: nounwind sspstrong uwtable
define internal void @trace_colo_compare_ip_info(i32 noundef %psize, ptr noundef %sta, ptr noundef %stb, i32 noundef %ssize, ptr noundef %stc, ptr noundef %std) #0 {
entry:
  %psize.addr = alloca i32, align 4
  %sta.addr = alloca ptr, align 8
  %stb.addr = alloca ptr, align 8
  %ssize.addr = alloca i32, align 4
  %stc.addr = alloca ptr, align 8
  %std.addr = alloca ptr, align 8
  store i32 %psize, ptr %psize.addr, align 4
  store ptr %sta, ptr %sta.addr, align 8
  store ptr %stb, ptr %stb.addr, align 8
  store i32 %ssize, ptr %ssize.addr, align 4
  store ptr %stc, ptr %stc.addr, align 8
  store ptr %std, ptr %std.addr, align 8
  %0 = load i32, ptr %psize.addr, align 4
  %1 = load ptr, ptr %sta.addr, align 8
  %2 = load ptr, ptr %stb.addr, align 8
  %3 = load i32, ptr %ssize.addr, align 4
  %4 = load ptr, ptr %stc.addr, align 8
  %5 = load ptr, ptr %std.addr, align 8
  call void @_nocheck__trace_colo_compare_ip_info(i32 noundef %0, ptr noundef %1, ptr noundef %2, i32 noundef %3, ptr noundef %4, ptr noundef %5)
  ret void
}

; Function Attrs: nounwind sspstrong uwtable
define internal i32 @colo_compare_packet_payload(ptr noundef %ppkt, ptr noundef %spkt, i16 noundef zeroext %poffset, i16 noundef zeroext %soffset, i16 noundef zeroext %len) #0 {
entry:
  %ppkt.addr = alloca ptr, align 8
  %spkt.addr = alloca ptr, align 8
  %poffset.addr = alloca i16, align 2
  %soffset.addr = alloca i16, align 2
  %len.addr = alloca i16, align 2
  %pri_ip_src = alloca [20 x i8], align 16
  %pri_ip_dst = alloca [20 x i8], align 16
  %sec_ip_src = alloca [20 x i8], align 16
  %sec_ip_dst = alloca [20 x i8], align 16
  store ptr %ppkt, ptr %ppkt.addr, align 8
  store ptr %spkt, ptr %spkt.addr, align 8
  store i16 %poffset, ptr %poffset.addr, align 2
  store i16 %soffset, ptr %soffset.addr, align 2
  store i16 %len, ptr %len.addr, align 2
  %0 = load i32, ptr @trace_events_enabled_count, align 4
  %tobool = icmp ne i32 %0, 0
  %lnot = xor i1 %tobool, true
  %lnot1 = xor i1 %lnot, true
  %lnot.ext = zext i1 %lnot1 to i32
  %conv = sext i32 %lnot.ext to i64
  %tobool2 = icmp ne i64 %conv, 0
  br i1 %tobool2, label %land.lhs.true, label %if.end

land.lhs.true:                                    ; preds = %entry
  %1 = load i16, ptr @_TRACE_COLO_COMPARE_IP_INFO_DSTATE, align 2
  %conv3 = zext i16 %1 to i32
  %tobool4 = icmp ne i32 %conv3, 0
  br i1 %tobool4, label %if.then, label %if.end

if.then:                                          ; preds = %land.lhs.true
  %arraydecay = getelementptr inbounds [20 x i8], ptr %pri_ip_src, i64 0, i64 0
  %2 = load ptr, ptr %ppkt.addr, align 8
  %3 = getelementptr inbounds %struct.Packet, ptr %2, i32 0, i32 1
  %4 = load ptr, ptr %3, align 8
  %ip_src = getelementptr inbounds %struct.ip, ptr %4, i32 0, i32 8
  %coerce.dive = getelementptr inbounds %struct.in_addr, ptr %ip_src, i32 0, i32 0
  %5 = load i32, ptr %coerce.dive, align 1
  %call = call ptr @inet_ntoa(i32 %5) #15
  %call5 = call ptr @strcpy(ptr noundef %arraydecay, ptr noundef %call) #15
  %arraydecay6 = getelementptr inbounds [20 x i8], ptr %pri_ip_dst, i64 0, i64 0
  %6 = load ptr, ptr %ppkt.addr, align 8
  %7 = getelementptr inbounds %struct.Packet, ptr %6, i32 0, i32 1
  %8 = load ptr, ptr %7, align 8
  %ip_dst = getelementptr inbounds %struct.ip, ptr %8, i32 0, i32 9
  %coerce.dive7 = getelementptr inbounds %struct.in_addr, ptr %ip_dst, i32 0, i32 0
  %9 = load i32, ptr %coerce.dive7, align 1
  %call8 = call ptr @inet_ntoa(i32 %9) #15
  %call9 = call ptr @strcpy(ptr noundef %arraydecay6, ptr noundef %call8) #15
  %arraydecay10 = getelementptr inbounds [20 x i8], ptr %sec_ip_src, i64 0, i64 0
  %10 = load ptr, ptr %spkt.addr, align 8
  %11 = getelementptr inbounds %struct.Packet, ptr %10, i32 0, i32 1
  %12 = load ptr, ptr %11, align 8
  %ip_src11 = getelementptr inbounds %struct.ip, ptr %12, i32 0, i32 8
  %coerce.dive12 = getelementptr inbounds %struct.in_addr, ptr %ip_src11, i32 0, i32 0
  %13 = load i32, ptr %coerce.dive12, align 1
  %call13 = call ptr @inet_ntoa(i32 %13) #15
  %call14 = call ptr @strcpy(ptr noundef %arraydecay10, ptr noundef %call13) #15
  %arraydecay15 = getelementptr inbounds [20 x i8], ptr %sec_ip_dst, i64 0, i64 0
  %14 = load ptr, ptr %spkt.addr, align 8
  %15 = getelementptr inbounds %struct.Packet, ptr %14, i32 0, i32 1
  %16 = load ptr, ptr %15, align 8
  %ip_dst16 = getelementptr inbounds %struct.ip, ptr %16, i32 0, i32 9
  %coerce.dive17 = getelementptr inbounds %struct.in_addr, ptr %ip_dst16, i32 0, i32 0
  %17 = load i32, ptr %coerce.dive17, align 1
  %call18 = call ptr @inet_ntoa(i32 %17) #15
  %call19 = call ptr @strcpy(ptr noundef %arraydecay15, ptr noundef %call18) #15
  %18 = load ptr, ptr %ppkt.addr, align 8
  %size = getelementptr inbounds %struct.Packet, ptr %18, i32 0, i32 3
  %19 = load i32, ptr %size, align 8
  %arraydecay20 = getelementptr inbounds [20 x i8], ptr %pri_ip_src, i64 0, i64 0
  %arraydecay21 = getelementptr inbounds [20 x i8], ptr %pri_ip_dst, i64 0, i64 0
  %20 = load ptr, ptr %spkt.addr, align 8
  %size22 = getelementptr inbounds %struct.Packet, ptr %20, i32 0, i32 3
  %21 = load i32, ptr %size22, align 8
  %arraydecay23 = getelementptr inbounds [20 x i8], ptr %sec_ip_src, i64 0, i64 0
  %arraydecay24 = getelementptr inbounds [20 x i8], ptr %sec_ip_dst, i64 0, i64 0
  call void @trace_colo_compare_ip_info(i32 noundef %19, ptr noundef %arraydecay20, ptr noundef %arraydecay21, i32 noundef %21, ptr noundef %arraydecay23, ptr noundef %arraydecay24)
  br label %if.end

if.end:                                           ; preds = %if.then, %land.lhs.true, %entry
  %22 = load ptr, ptr %ppkt.addr, align 8
  %data = getelementptr inbounds %struct.Packet, ptr %22, i32 0, i32 0
  %23 = load ptr, ptr %data, align 8
  %24 = load i16, ptr %poffset.addr, align 2
  %conv25 = zext i16 %24 to i32
  %idx.ext = sext i32 %conv25 to i64
  %add.ptr = getelementptr i8, ptr %23, i64 %idx.ext
  %25 = load ptr, ptr %spkt.addr, align 8
  %data26 = getelementptr inbounds %struct.Packet, ptr %25, i32 0, i32 0
  %26 = load ptr, ptr %data26, align 8
  %27 = load i16, ptr %soffset.addr, align 2
  %conv27 = zext i16 %27 to i32
  %idx.ext28 = sext i32 %conv27 to i64
  %add.ptr29 = getelementptr i8, ptr %26, i64 %idx.ext28
  %28 = load i16, ptr %len.addr, align 2
  %conv30 = zext i16 %28 to i64
  %call31 = call i32 @memcmp(ptr noundef %add.ptr, ptr noundef %add.ptr29, i64 noundef %conv30) #14
  ret i32 %call31
}