; Function Attrs: nounwind sspstrong uwtable
define internal fastcc i32 @colo_compare_packet_payload(ptr noundef readonly captures(none) %ppkt, ptr noundef readonly captures(none) %spkt, i16 noundef zeroext %poffset, i16 noundef zeroext %soffset, i16 noundef zeroext %len) unnamed_addr #0 {
entry:
  %_now.i.i = alloca %struct.timeval, align 8
  %pri_ip_src = alloca [20 x i8], align 16
  %pri_ip_dst = alloca [20 x i8], align 16
  %sec_ip_src = alloca [20 x i8], align 16
  %sec_ip_dst = alloca [20 x i8], align 16
  %0 = load i32, ptr @trace_events_enabled_count, align 4
  %tobool = icmp ne i32 %0, 0
  %1 = load i16, ptr @_TRACE_COLO_COMPARE_IP_INFO_DSTATE, align 2
  %tobool4 = icmp ne i16 %1, 0
  %or.cond = select i1 %tobool, i1 %tobool4, i1 false
  br i1 %or.cond, label %if.then, label %if.end

if.then:                                          ; preds = %entry
  %2 = getelementptr inbounds nuw i8, ptr %ppkt, i64 8
  %3 = load ptr, ptr %2, align 8
  %ip_src = getelementptr inbounds nuw i8, ptr %3, i64 12
  %4 = load i32, ptr %ip_src, align 1
  %call = tail call ptr @inet_ntoa(i32 %4) #16
  %call5 = call ptr @strcpy(ptr noundef nonnull dereferenceable(1) %pri_ip_src, ptr noundef nonnull dereferenceable(1) %call) #16
  %5 = load ptr, ptr %2, align 8
  %ip_dst = getelementptr inbounds nuw i8, ptr %5, i64 16
  %6 = load i32, ptr %ip_dst, align 1
  %call8 = call ptr @inet_ntoa(i32 %6) #16
  %call9 = call ptr @strcpy(ptr noundef nonnull dereferenceable(1) %pri_ip_dst, ptr noundef nonnull dereferenceable(1) %call8) #16
  %7 = getelementptr inbounds nuw i8, ptr %spkt, i64 8
  %8 = load ptr, ptr %7, align 8
  %ip_src11 = getelementptr inbounds nuw i8, ptr %8, i64 12
  %9 = load i32, ptr %ip_src11, align 1
  %call13 = call ptr @inet_ntoa(i32 %9) #16
  %call14 = call ptr @strcpy(ptr noundef nonnull dereferenceable(1) %sec_ip_src, ptr noundef nonnull dereferenceable(1) %call13) #16
  %10 = load ptr, ptr %7, align 8
  %ip_dst16 = getelementptr inbounds nuw i8, ptr %10, i64 16
  %11 = load i32, ptr %ip_dst16, align 1
  %call18 = call ptr @inet_ntoa(i32 %11) #16
  %call19 = call ptr @strcpy(ptr noundef nonnull dereferenceable(1) %sec_ip_dst, ptr noundef nonnull dereferenceable(1) %call18) #16
  %size = getelementptr inbounds nuw i8, ptr %ppkt, i64 24
  %12 = load i32, ptr %size, align 8
  %size22 = getelementptr inbounds nuw i8, ptr %spkt, i64 24
  %13 = load i32, ptr %size22, align 8
  call void @llvm.lifetime.start.p0(i64 16, ptr nonnull %_now.i.i)
  %14 = load i32, ptr @trace_events_enabled_count, align 4
  %tobool.i.i = icmp ne i32 %14, 0
  %15 = load i16, ptr @_TRACE_COLO_COMPARE_IP_INFO_DSTATE, align 2
  %tobool4.i.i = icmp ne i16 %15, 0
  %or.cond.i.i = select i1 %tobool.i.i, i1 %tobool4.i.i, i1 false
  br i1 %or.cond.i.i, label %land.lhs.true5.i.i, label %trace_colo_compare_ip_info.exit

land.lhs.true5.i.i:                               ; preds = %if.then
  %16 = load i32, ptr @qemu_loglevel, align 4
  %and.i.i.i = and i32 %16, 32768
  %cmp.i.not.i.i = icmp eq i32 %and.i.i.i, 0
  br i1 %cmp.i.not.i.i, label %trace_colo_compare_ip_info.exit, label %if.then.i.i

if.then.i.i:                                      ; preds = %land.lhs.true5.i.i
  %17 = load i8, ptr @message_with_timestamp, align 1
  %tobool7.i.i = trunc i8 %17 to i1
  br i1 %tobool7.i.i, label %if.then8.i.i, label %if.else.i.i

if.then8.i.i:                                     ; preds = %if.then.i.i
  %call9.i.i = call i32 @gettimeofday(ptr noundef nonnull %_now.i.i, ptr noundef null) #16
  %call10.i.i = call i32 @qemu_get_thread_id() #16
  %18 = load i64, ptr %_now.i.i, align 8
  %tv_usec.i.i = getelementptr inbounds nuw i8, ptr %_now.i.i, i64 8
  %19 = load i64, ptr %tv_usec.i.i, align 8
  call void (ptr, ...) @qemu_log(ptr noundef nonnull @.str.37, i32 noundef %call10.i.i, i64 noundef %18, i64 noundef %19, i32 noundef %12, ptr noundef nonnull %pri_ip_src, ptr noundef nonnull %pri_ip_dst, i32 noundef %13, ptr noundef nonnull %sec_ip_src, ptr noundef nonnull %sec_ip_dst) #16
  br label %trace_colo_compare_ip_info.exit

if.else.i.i:                                      ; preds = %if.then.i.i
  call void (ptr, ...) @qemu_log(ptr noundef nonnull @.str.38, i32 noundef %12, ptr noundef nonnull %pri_ip_src, ptr noundef nonnull %pri_ip_dst, i32 noundef %13, ptr noundef nonnull %sec_ip_src, ptr noundef nonnull %sec_ip_dst) #16
  br label %trace_colo_compare_ip_info.exit

trace_colo_compare_ip_info.exit:                  ; preds = %if.then, %land.lhs.true5.i.i, %if.then8.i.i, %if.else.i.i
  call void @llvm.lifetime.end.p0(i64 16, ptr nonnull %_now.i.i)
  br label %if.end

if.end:                                           ; preds = %trace_colo_compare_ip_info.exit, %entry
  %20 = load ptr, ptr %ppkt, align 8
  %idx.ext = zext i16 %poffset to i64
  %add.ptr = getelementptr i8, ptr %20, i64 %idx.ext
  %21 = load ptr, ptr %spkt, align 8
  %idx.ext28 = zext i16 %soffset to i64
  %add.ptr29 = getelementptr i8, ptr %21, i64 %idx.ext28
  %conv30 = zext i16 %len to i64
  %call31 = call i32 @memcmp(ptr noundef %add.ptr, ptr noundef %add.ptr29, i64 noundef %conv30) #20
  ret i32 %call31
}